target datalayout = "e-m:e-p270:32:32-p271:32:32-p272:64:64-i64:64-i128:128-f80:128-n8:16:32:64-S128"
target triple = "x86_64-pc-linux-gnu"

; Function Attrs: inlinehint nounwind uwtable
define internal i32 @VP8RGBToY(i32 noundef %0, i32 noundef %1, i32 noundef %2, i32 noundef %3) #3 {
  %5 = alloca i32, align 4
  %6 = alloca i32, align 4
  %7 = alloca i32, align 4
  %8 = alloca i32, align 4
  %9 = alloca i32, align 4
  store i32 %0, ptr %5, align 4, !tbaa !8
  store i32 %1, ptr %6, align 4, !tbaa !8
  store i32 %2, ptr %7, align 4, !tbaa !8
  store i32 %3, ptr %8, align 4, !tbaa !8
  call void @llvm.lifetime.start.p0(i64 4, ptr %9) #5
  %10 = load i32, ptr %5, align 4, !tbaa !8
  %11 = mul nsw i32 16839, %10
  %12 = load i32, ptr %6, align 4, !tbaa !8
  %13 = mul nsw i32 33059, %12
  %14 = add nsw i32 %11, %13
  %15 = load i32, ptr %7, align 4, !tbaa !8
  %16 = mul nsw i32 6420, %15
  %17 = add nsw i32 %14, %16
  store i32 %17, ptr %9, align 4, !tbaa !8
  %18 = load i32, ptr %9, align 4, !tbaa !8
  %19 = load i32, ptr %8, align 4, !tbaa !8
  %20 = add nsw i32 %18, %19
  %21 = add nsw i32 %20, 1048576
  %22 = ashr i32 %21, 16
  call void @llvm.lifetime.end.p0(i64 4, ptr %9) #5
  ret i32 %22
}

; Function Attrs: nounwind uwtable
define internal void @ConvertARGBToY_C(ptr noalias noundef %0, ptr noalias noundef %1, i32 noundef %2) #0 {
  %4 = alloca ptr, align 8
  %5 = alloca ptr, align 8
  %6 = alloca i32, align 4
  %7 = alloca i32, align 4
  %8 = alloca i32, align 4
  store ptr %0, ptr %4, align 8, !tbaa !13
  store ptr %1, ptr %5, align 8, !tbaa !3
  store i32 %2, ptr %6, align 4, !tbaa !8
  call void @llvm.lifetime.start.p0(i64 4, ptr %7) #5
  store i32 0, ptr %7, align 4, !tbaa !8
  br label %9

9:                                                ; preds = %34, %3
  %10 = load i32, ptr %7, align 4, !tbaa !8
  %11 = load i32, ptr %6, align 4, !tbaa !8
  %12 = icmp slt i32 %10, %11
  br i1 %12, label %13, label %37

13:                                               ; preds = %9
  call void @llvm.lifetime.start.p0(i64 4, ptr %8) #5
  %14 = load ptr, ptr %4, align 8, !tbaa !13
  %15 = load i32, ptr %7, align 4, !tbaa !8
  %16 = sext i32 %15 to i64
  %17 = getelementptr inbounds i32, ptr %14, i64 %16
  %18 = load i32, ptr %17, align 4, !tbaa !8
  store i32 %18, ptr %8, align 4, !tbaa !8
  %19 = load i32, ptr %8, align 4, !tbaa !8
  %20 = lshr i32 %19, 16
  %21 = and i32 %20, 255
  %22 = load i32, ptr %8, align 4, !tbaa !8
  %23 = lshr i32 %22, 8
  %24 = and i32 %23, 255
  %25 = load i32, ptr %8, align 4, !tbaa !8
  %26 = lshr i32 %25, 0
  %27 = and i32 %26, 255
  %28 = call i32 @VP8RGBToY(i32 noundef %21, i32 noundef %24, i32 noundef %27, i32 noundef 32768)
  %29 = trunc i32 %28 to i8
  %30 = load ptr, ptr %5, align 8, !tbaa !3
  %31 = load i32, ptr %7, align 4, !tbaa !8
  %32 = sext i32 %31 to i64
  %33 = getelementptr inbounds i8, ptr %30, i64 %32
  store i8 %29, ptr %33, align 1, !tbaa !15
  call void @llvm.lifetime.end.p0(i64 4, ptr %8) #5
  br label %34

34:                                               ; preds = %13
  %35 = load i32, ptr %7, align 4, !tbaa !8
  %36 = add nsw i32 %35, 1
  store i32 %36, ptr %7, align 4, !tbaa !8
  br label %9, !llvm.loop !29

37:                                               ; preds = %9
  call void @llvm.lifetime.end.p0(i64 4, ptr %7) #5
  ret void
}