; Function Attrs: nofree norecurse nosync nounwind memory(argmem: readwrite) uwtable
define internal void @ConvertARGBToY_C(ptr noalias noundef readonly captures(none) %0, ptr noalias noundef writeonly captures(none) %1, i32 noundef %2) #2 {
  %4 = icmp sgt i32 %2, 0
  br i1 %4, label %.lr.ph.preheader, label %._crit_edge

.lr.ph.preheader:                                 ; preds = %3
  %wide.trip.count = zext nneg i32 %2 to i64
  br label %.lr.ph

.lr.ph:                                           ; preds = %.lr.ph.preheader, %.lr.ph
  %indvars.iv = phi i64 [ 0, %.lr.ph.preheader ], [ %indvars.iv.next, %.lr.ph ]
  %5 = getelementptr inbounds nuw i32, ptr %0, i64 %indvars.iv
  %6 = load i32, ptr %5, align 4, !tbaa !9
  %7 = lshr i32 %6, 16
  %8 = and i32 %7, 255
  %9 = lshr i32 %6, 8
  %10 = and i32 %9, 255
  %11 = and i32 %6, 255
  %12 = mul nuw nsw i32 %8, 16839
  %13 = mul nuw nsw i32 %10, 33059
  %14 = mul nuw nsw i32 %11, 6420
  %15 = add nuw nsw i32 %14, 1081344
  %16 = add nuw nsw i32 %15, %12
  %17 = add nuw nsw i32 %16, %13
  %18 = lshr i32 %17, 16
  %19 = trunc nuw i32 %18 to i8
  %20 = getelementptr inbounds nuw i8, ptr %1, i64 %indvars.iv
  store i8 %19, ptr %20, align 1, !tbaa !11
  %indvars.iv.next = add nuw nsw i64 %indvars.iv, 1
  %exitcond.not = icmp eq i64 %indvars.iv.next, %wide.trip.count
  br i1 %exitcond.not, label %._crit_edge, label %.lr.ph, !llvm.loop !23

._crit_edge:                                      ; preds = %.lr.ph, %3
  ret void
}